target datalayout = "e-m:e-p270:32:32-p271:32:32-p272:64:64-i64:64-i128:128-f80:128-n8:16:32:64-S128"
target triple = "x86_64-pc-linux-gnu"

%struct.VduseVirtq = type { %struct.VduseRing, i16, i16, i16, i16, i8, i32, i32, i8, i32, ptr, ptr, i16, i64, ptr }
%struct.VduseRing = type { i32, i64, i64, i64, ptr, ptr, ptr }
%struct.VduseDev = type { ptr, [256 x %struct.VduseIovaRegion], i32, ptr, i32, i32, i16, i16, i64, ptr, i32, i32, ptr, ptr }
%struct.VduseIovaRegion = type { i64, i64, i64, i64 }
%struct.VduseOps = type { ptr, ptr }

@stderr = external global ptr, align 8
@.str.6 = private unnamed_addr constant [29 x i8] c"Invalid parameter for vduse\0A\00", align 1
@.str.7 = private unnamed_addr constant [33 x i8] c"Failed to allocate vduse device\0A\00", align 1
@.str.8 = private unnamed_addr constant [28 x i8] c"Failed to get features: %s\0A\00", align 1
@.str.9 = private unnamed_addr constant [20 x i8] c"Failed to init vqs\0A\00", align 1

; Function Attrs: nounwind uwtable
define internal i32 @vduse_dev_init_vqs(ptr noundef %0, i16 noundef zeroext %1) #0 {
  %3 = alloca i32, align 4
  %4 = alloca ptr, align 8
  %5 = alloca i16, align 2
  %6 = alloca ptr, align 8
  %7 = alloca i32, align 4
  %8 = alloca i32, align 4
  store ptr %0, ptr %4, align 8
  store i16 %1, ptr %5, align 2
  call void @llvm.lifetime.start.p0(i64 8, ptr %6) #13
  store ptr null, ptr %6, align 8, !annotation !4
  call void @llvm.lifetime.start.p0(i64 4, ptr %7) #13
  store i32 0, ptr %7, align 4, !annotation !4
  %9 = load i16, ptr %5, align 2
  %10 = zext i16 %9 to i64
  %11 = call noalias ptr @calloc(i64 noundef 128, i64 noundef %10) #17
  store ptr %11, ptr %6, align 8
  %12 = load ptr, ptr %6, align 8
  %13 = icmp ne ptr %12, null
  br i1 %13, label %15, label %14

14:                                               ; preds = %2
  store i32 -12, ptr %3, align 4
  store i32 1, ptr %8, align 4
  br label %46

15:                                               ; preds = %2
  store i32 0, ptr %7, align 4
  br label %16

16:                                               ; preds = %39, %15
  %17 = load i32, ptr %7, align 4
  %18 = load i16, ptr %5, align 2
  %19 = zext i16 %18 to i32
  %20 = icmp slt i32 %17, %19
  br i1 %20, label %21, label %42

21:                                               ; preds = %16
  %22 = load i32, ptr %7, align 4
  %23 = load ptr, ptr %6, align 8
  %24 = load i32, ptr %7, align 4
  %25 = sext i32 %24 to i64
  %26 = getelementptr inbounds %struct.VduseVirtq, ptr %23, i64 %25
  %27 = getelementptr inbounds nuw %struct.VduseVirtq, ptr %26, i32 0, i32 6
  store i32 %22, ptr %27, align 4
  %28 = load ptr, ptr %4, align 8
  %29 = load ptr, ptr %6, align 8
  %30 = load i32, ptr %7, align 4
  %31 = sext i32 %30 to i64
  %32 = getelementptr inbounds %struct.VduseVirtq, ptr %29, i64 %31
  %33 = getelementptr inbounds nuw %struct.VduseVirtq, ptr %32, i32 0, i32 10
  store ptr %28, ptr %33, align 8
  %34 = load ptr, ptr %6, align 8
  %35 = load i32, ptr %7, align 4
  %36 = sext i32 %35 to i64
  %37 = getelementptr inbounds %struct.VduseVirtq, ptr %34, i64 %36
  %38 = getelementptr inbounds nuw %struct.VduseVirtq, ptr %37, i32 0, i32 9
  store i32 -1, ptr %38, align 8
  br label %39

39:                                               ; preds = %21
  %40 = load i32, ptr %7, align 4
  %41 = add i32 %40, 1
  store i32 %41, ptr %7, align 4
  br label %16

42:                                               ; preds = %16
  %43 = load ptr, ptr %6, align 8
  %44 = load ptr, ptr %4, align 8
  %45 = getelementptr inbounds nuw %struct.VduseDev, ptr %44, i32 0, i32 0
  store ptr %43, ptr %45, align 8
  store i32 0, ptr %3, align 4
  store i32 1, ptr %8, align 4
  br label %46

46:                                               ; preds = %42, %14
  call void @llvm.lifetime.end.p0(i64 4, ptr %7) #13
  call void @llvm.lifetime.end.p0(i64 8, ptr %6) #13
  %47 = load i32, ptr %3, align 4
  ret i32 %47
}

; Function Attrs: nounwind uwtable
define dso_local ptr @vduse_dev_create_by_fd(i32 noundef %0, i16 noundef zeroext %1, ptr noundef %2, ptr noundef %3) #0 {
  %5 = alloca ptr, align 8
  %6 = alloca i32, align 4
  %7 = alloca i16, align 2
  %8 = alloca ptr, align 8
  %9 = alloca ptr, align 8
  %10 = alloca ptr, align 8
  %11 = alloca i32, align 4
  %12 = alloca i32, align 4
  store i32 %0, ptr %6, align 4
  store i16 %1, ptr %7, align 2
  store ptr %2, ptr %8, align 8
  store ptr %3, ptr %9, align 8
  call void @llvm.lifetime.start.p0(i64 8, ptr %10) #13
  store ptr null, ptr %10, align 8, !annotation !4
  call void @llvm.lifetime.start.p0(i64 4, ptr %11) #13
  store i32 0, ptr %11, align 4, !annotation !4
  %13 = load ptr, ptr %8, align 8
  %14 = icmp ne ptr %13, null
  br i1 %14, label %15, label %25

15:                                               ; preds = %4
  %16 = load ptr, ptr %8, align 8
  %17 = getelementptr inbounds nuw %struct.VduseOps, ptr %16, i32 0, i32 0
  %18 = load ptr, ptr %17, align 8
  %19 = icmp ne ptr %18, null
  br i1 %19, label %20, label %25

20:                                               ; preds = %15
  %21 = load ptr, ptr %8, align 8
  %22 = getelementptr inbounds nuw %struct.VduseOps, ptr %21, i32 0, i32 1
  %23 = load ptr, ptr %22, align 8
  %24 = icmp ne ptr %23, null
  br i1 %24, label %28, label %25

25:                                               ; preds = %20, %15, %4
  %26 = load ptr, ptr @stderr, align 8
  %27 = call i32 (ptr, ptr, ...) @fprintf(ptr noundef %26, ptr noundef @.str.6) #13
  store ptr null, ptr %5, align 8
  store i32 1, ptr %12, align 4
  br label %72

28:                                               ; preds = %20
  %29 = call noalias ptr @calloc(i64 noundef 8272, i64 noundef 1) #17
  store ptr %29, ptr %10, align 8
  %30 = load ptr, ptr %10, align 8
  %31 = icmp ne ptr %30, null
  br i1 %31, label %35, label %32

32:                                               ; preds = %28
  %33 = load ptr, ptr @stderr, align 8
  %34 = call i32 (ptr, ptr, ...) @fprintf(ptr noundef %33, ptr noundef @.str.7) #13
  store ptr null, ptr %5, align 8
  store i32 1, ptr %12, align 4
  br label %72

35:                                               ; preds = %28
  %36 = load i32, ptr %6, align 4
  %37 = load ptr, ptr %10, align 8
  %38 = getelementptr inbounds nuw %struct.VduseDev, ptr %37, i32 0, i32 8
  %39 = call i32 (i32, i64, ...) @ioctl(i32 noundef %36, i64 noundef 2148040977, ptr noundef %38) #13
  %40 = icmp ne i32 %39, 0
  br i1 %40, label %41, label %48

41:                                               ; preds = %35
  %42 = load ptr, ptr @stderr, align 8
  %43 = call ptr @__errno_location() #14
  %44 = load i32, ptr %43, align 4
  %45 = call ptr @strerror(i32 noundef %44) #13
  %46 = call i32 (ptr, ptr, ...) @fprintf(ptr noundef %42, ptr noundef @.str.8, ptr noundef %45) #13
  %47 = load ptr, ptr %10, align 8
  call void @free(ptr noundef %47) #13
  store ptr null, ptr %5, align 8
  store i32 1, ptr %12, align 4
  br label %72

48:                                               ; preds = %35
  %49 = load ptr, ptr %10, align 8
  %50 = load i16, ptr %7, align 2
  %51 = call i32 @vduse_dev_init_vqs(ptr noundef %49, i16 noundef zeroext %50)
  store i32 %51, ptr %11, align 4
  %52 = load i32, ptr %11, align 4
  %53 = icmp ne i32 %52, 0
  br i1 %53, label %54, label %58

54:                                               ; preds = %48
  %55 = load ptr, ptr @stderr, align 8
  %56 = call i32 (ptr, ptr, ...) @fprintf(ptr noundef %55, ptr noundef @.str.9) #13
  %57 = load ptr, ptr %10, align 8
  call void @free(ptr noundef %57) #13
  store ptr null, ptr %5, align 8
  store i32 1, ptr %12, align 4
  br label %72

58:                                               ; preds = %48
  %59 = load i16, ptr %7, align 2
  %60 = load ptr, ptr %10, align 8
  %61 = getelementptr inbounds nuw %struct.VduseDev, ptr %60, i32 0, i32 6
  store i16 %59, ptr %61, align 8
  %62 = load i32, ptr %6, align 4
  %63 = load ptr, ptr %10, align 8
  %64 = getelementptr inbounds nuw %struct.VduseDev, ptr %63, i32 0, i32 10
  store i32 %62, ptr %64, align 8
  %65 = load ptr, ptr %8, align 8
  %66 = load ptr, ptr %10, align 8
  %67 = getelementptr inbounds nuw %struct.VduseDev, ptr %66, i32 0, i32 9
  store ptr %65, ptr %67, align 8
  %68 = load ptr, ptr %9, align 8
  %69 = load ptr, ptr %10, align 8
  %70 = getelementptr inbounds nuw %struct.VduseDev, ptr %69, i32 0, i32 12
  store ptr %68, ptr %70, align 8
  %71 = load ptr, ptr %10, align 8
  store ptr %71, ptr %5, align 8
  store i32 1, ptr %12, align 4
  br label %72

72:                                               ; preds = %58, %54, %41, %32, %25
  call void @llvm.lifetime.end.p0(i64 4, ptr %11) #13
  call void @llvm.lifetime.end.p0(i64 8, ptr %10) #13
  %73 = load ptr, ptr %5, align 8
  ret ptr %73
}