; Function Attrs: nounwind uwtable
define dso_local noundef ptr @vduse_dev_create_by_fd(i32 noundef %0, i16 noundef zeroext %1, ptr noundef %2, ptr noundef %3) local_unnamed_addr #2 {
  %.not = icmp eq ptr %2, null
  br i1 %.not, label %10, label %5

5:                                                ; preds = %4
  %6 = load ptr, ptr %2, align 8
  %.not22 = icmp eq ptr %6, null
  br i1 %.not22, label %10, label %7

7:                                                ; preds = %5
  %8 = getelementptr inbounds nuw i8, ptr %2, i64 8
  %9 = load ptr, ptr %8, align 8
  %.not23 = icmp eq ptr %9, null
  br i1 %.not23, label %10, label %13

10:                                               ; preds = %7, %5, %4
  %11 = load ptr, ptr @stderr, align 8
  %12 = tail call i64 @fwrite(ptr nonnull @.str.6, i64 28, i64 1, ptr %11) #23
  br label %41

13:                                               ; preds = %7
  %14 = tail call noalias dereferenceable_or_null(8272) ptr @calloc(i64 noundef 8272, i64 noundef 1) #26
  %.not24 = icmp eq ptr %14, null
  br i1 %.not24, label %15, label %18

15:                                               ; preds = %13
  %16 = load ptr, ptr @stderr, align 8
  %17 = tail call i64 @fwrite(ptr nonnull @.str.7, i64 32, i64 1, ptr %16) #23
  br label %41

18:                                               ; preds = %13
  %19 = getelementptr inbounds nuw i8, ptr %14, i64 8232
  %20 = tail call i32 (i32, i64, ...) @ioctl(i32 noundef %0, i64 noundef 2148040977, ptr noundef nonnull %19) #20
  %.not25 = icmp eq i32 %20, 0
  br i1 %.not25, label %27, label %21

21:                                               ; preds = %18
  %22 = load ptr, ptr @stderr, align 8
  %23 = tail call ptr @__errno_location() #21
  %24 = load i32, ptr %23, align 4
  %25 = tail call ptr @strerror(i32 noundef %24) #20
  %26 = tail call i32 (ptr, ptr, ...) @fprintf(ptr noundef %22, ptr noundef nonnull @.str.8, ptr noundef %25) #22
  tail call void @free(ptr noundef nonnull %14) #20
  br label %41

27:                                               ; preds = %18
  %28 = zext i16 %1 to i64
  %29 = tail call noalias ptr @calloc(i64 noundef 128, i64 noundef %28) #26
  %.not.i = icmp eq ptr %29, null
  br i1 %.not.i, label %vduse_dev_init_vqs.exit, label %.preheader.i

.preheader.i:                                     ; preds = %27
  %.not18.i = icmp eq i16 %1, 0
  br i1 %.not18.i, label %.loopexit, label %.lr.ph.i

.lr.ph.i:                                         ; preds = %.preheader.i, %.lr.ph.i
  %indvars.iv.i = phi i64 [ %indvars.iv.next.i, %.lr.ph.i ], [ 0, %.preheader.i ]
  %30 = getelementptr inbounds nuw %struct.VduseVirtq, ptr %29, i64 %indvars.iv.i
  %31 = getelementptr inbounds nuw i8, ptr %30, i64 68
  %32 = trunc nuw nsw i64 %indvars.iv.i to i32
  store i32 %32, ptr %31, align 4
  %33 = getelementptr inbounds nuw i8, ptr %30, i64 88
  store ptr %14, ptr %33, align 8
  %34 = getelementptr inbounds nuw i8, ptr %30, i64 80
  store i32 -1, ptr %34, align 8
  %indvars.iv.next.i = add nuw nsw i64 %indvars.iv.i, 1
  %exitcond.not.i = icmp eq i64 %indvars.iv.next.i, %28
  br i1 %exitcond.not.i, label %.loopexit, label %.lr.ph.i

vduse_dev_init_vqs.exit:                          ; preds = %27
  %35 = load ptr, ptr @stderr, align 8
  %36 = tail call i64 @fwrite(ptr nonnull @.str.9, i64 19, i64 1, ptr %35) #23
  tail call void @free(ptr noundef nonnull %14) #20
  br label %41

.loopexit:                                        ; preds = %.lr.ph.i, %.preheader.i
  store ptr %29, ptr %14, align 8
  %37 = getelementptr inbounds nuw i8, ptr %14, i64 8224
  store i16 %1, ptr %37, align 8
  %38 = getelementptr inbounds nuw i8, ptr %14, i64 8248
  store i32 %0, ptr %38, align 8
  %39 = getelementptr inbounds nuw i8, ptr %14, i64 8240
  store ptr %2, ptr %39, align 8
  %40 = getelementptr inbounds nuw i8, ptr %14, i64 8256
  store ptr %3, ptr %40, align 8
  br label %41

41:                                               ; preds = %.loopexit, %vduse_dev_init_vqs.exit, %21, %15, %10
  %.0 = phi ptr [ null, %21 ], [ null, %vduse_dev_init_vqs.exit ], [ %14, %.loopexit ], [ null, %15 ], [ null, %10 ]
  ret ptr %.0
}